target datalayout = "e-m:e-p270:32:32-p271:32:32-p272:64:64-i64:64-i128:128-f80:128-n8:16:32:64-S128"
target triple = "x86_64-unknown-linux-gnu"

%"union.std::__detail::__variant::_Variadic_union.8" = type { %"struct.std::__detail::__variant::_Uninitialized.9" }
%"struct.std::__detail::__variant::_Uninitialized.9" = type { %"struct.__gnu_cxx::__aligned_membuf.10" }
%"struct.__gnu_cxx::__aligned_membuf.10" = type { [48 x i8] }
%"class.std::__cxx11::basic_string" = type { %"struct.std::__cxx11::basic_string<char>::_Alloc_hider", i64, %union.anon.23 }
%"struct.std::__cxx11::basic_string<char>::_Alloc_hider" = type { ptr }
%union.anon.23 = type { i64, [8 x i8] }
%"struct.grpc_core::(anonymous namespace)::JsonReader::Scope" = type { %"class.std::__cxx11::basic_string", %"class.std::variant.24" }
%"class.std::variant.24" = type { %"struct.std::__detail::__variant::_Variant_base.base.36", [7 x i8] }
%"struct.std::__detail::__variant::_Variant_base.base.36" = type { %"struct.std::__detail::__variant::_Move_assign_base.base.35" }
%"struct.std::__detail::__variant::_Move_assign_base.base.35" = type { %"struct.std::__detail::__variant::_Copy_assign_base.base.34" }
%"struct.std::__detail::__variant::_Copy_assign_base.base.34" = type { %"struct.std::__detail::__variant::_Move_ctor_base.base.33" }
%"struct.std::__detail::__variant::_Move_ctor_base.base.33" = type { %"struct.std::__detail::__variant::_Copy_ctor_base.base.32" }
%"struct.std::__detail::__variant::_Copy_ctor_base.base.32" = type { %"struct.std::__detail::__variant::_Variant_storage.base.31" }
%"struct.std::__detail::__variant::_Variant_storage.base.31" = type { %"union.std::__detail::__variant::_Variadic_union.8", i8 }

; Function Attrs: mustprogress nounwind uwtable
define linkonce_odr void @_ZNSt8__detail9__variant16_Variant_storageILb0EJSt3mapINSt7__cxx1112basic_stringIcSt11char_traitsIcESaIcEEEN9grpc_core12experimental4JsonESt4lessIS8_ESaISt4pairIKS8_SB_EEESt6vectorISB_SaISB_EEEED2Ev(ptr noundef nonnull align 8 dereferenceable(49) %this) unnamed_addr #6 comdat align 2 personality ptr @__gxx_personality_v0 {
entry:
  %this.addr = alloca ptr, align 8
  store ptr %this, ptr %this.addr, align 8
  %this1 = load ptr, ptr %this.addr, align 8
  invoke void @_ZNSt8__detail9__variant16_Variant_storageILb0EJSt3mapINSt7__cxx1112basic_stringIcSt11char_traitsIcESaIcEEEN9grpc_core12experimental4JsonESt4lessIS8_ESaISt4pairIKS8_SB_EEESt6vectorISB_SaISB_EEEE8_M_resetEv(ptr noundef nonnull align 8 dereferenceable(49) %this1)
          to label %invoke.cont unwind label %terminate.lpad

invoke.cont:                                      ; preds = %entry
  ret void

terminate.lpad:                                   ; preds = %entry
  %0 = landingpad { ptr, i32 }
          catch ptr null
  %1 = extractvalue { ptr, i32 } %0, 0
  call void @__clang_call_terminate(ptr %1) #15
  unreachable
}

; Function Attrs: mustprogress nounwind uwtable
define linkonce_odr void @_ZNSt8__detail9__variant15_Copy_ctor_baseILb0EJSt3mapINSt7__cxx1112basic_stringIcSt11char_traitsIcESaIcEEEN9grpc_core12experimental4JsonESt4lessIS8_ESaISt4pairIKS8_SB_EEESt6vectorISB_SaISB_EEEED2Ev(ptr noundef nonnull align 8 dereferenceable(49) %this) unnamed_addr #6 comdat align 2 {
entry:
  %this.addr = alloca ptr, align 8
  store ptr %this, ptr %this.addr, align 8
  %this1 = load ptr, ptr %this.addr, align 8
  call void @_ZNSt8__detail9__variant16_Variant_storageILb0EJSt3mapINSt7__cxx1112basic_stringIcSt11char_traitsIcESaIcEEEN9grpc_core12experimental4JsonESt4lessIS8_ESaISt4pairIKS8_SB_EEESt6vectorISB_SaISB_EEEED2Ev(ptr noundef nonnull align 8 dereferenceable(49) %this1) #3
  ret void
}

; Function Attrs: mustprogress nounwind uwtable
define linkonce_odr void @_ZNSt8__detail9__variant15_Move_ctor_baseILb0EJSt3mapINSt7__cxx1112basic_stringIcSt11char_traitsIcESaIcEEEN9grpc_core12experimental4JsonESt4lessIS8_ESaISt4pairIKS8_SB_EEESt6vectorISB_SaISB_EEEED2Ev(ptr noundef nonnull align 8 dereferenceable(49) %this) unnamed_addr #6 comdat align 2 {
entry:
  %this.addr = alloca ptr, align 8
  store ptr %this, ptr %this.addr, align 8
  %this1 = load ptr, ptr %this.addr, align 8
  call void @_ZNSt8__detail9__variant15_Copy_ctor_baseILb0EJSt3mapINSt7__cxx1112basic_stringIcSt11char_traitsIcESaIcEEEN9grpc_core12experimental4JsonESt4lessIS8_ESaISt4pairIKS8_SB_EEESt6vectorISB_SaISB_EEEED2Ev(ptr noundef nonnull align 8 dereferenceable(49) %this1) #3
  ret void
}

; Function Attrs: mustprogress nounwind uwtable
define linkonce_odr void @_ZNSt8__detail9__variant17_Copy_assign_baseILb0EJSt3mapINSt7__cxx1112basic_stringIcSt11char_traitsIcESaIcEEEN9grpc_core12experimental4JsonESt4lessIS8_ESaISt4pairIKS8_SB_EEESt6vectorISB_SaISB_EEEED2Ev(ptr noundef nonnull align 8 dereferenceable(49) %this) unnamed_addr #6 comdat align 2 {
entry:
  %this.addr = alloca ptr, align 8
  store ptr %this, ptr %this.addr, align 8
  %this1 = load ptr, ptr %this.addr, align 8
  call void @_ZNSt8__detail9__variant15_Move_ctor_baseILb0EJSt3mapINSt7__cxx1112basic_stringIcSt11char_traitsIcESaIcEEEN9grpc_core12experimental4JsonESt4lessIS8_ESaISt4pairIKS8_SB_EEESt6vectorISB_SaISB_EEEED2Ev(ptr noundef nonnull align 8 dereferenceable(49) %this1) #3
  ret void
}

; Function Attrs: mustprogress nounwind uwtable
define linkonce_odr void @_ZNSt8__detail9__variant17_Move_assign_baseILb0EJSt3mapINSt7__cxx1112basic_stringIcSt11char_traitsIcESaIcEEEN9grpc_core12experimental4JsonESt4lessIS8_ESaISt4pairIKS8_SB_EEESt6vectorISB_SaISB_EEEED2Ev(ptr noundef nonnull align 8 dereferenceable(49) %this) unnamed_addr #6 comdat align 2 {
entry:
  %this.addr = alloca ptr, align 8
  store ptr %this, ptr %this.addr, align 8
  %this1 = load ptr, ptr %this.addr, align 8
  call void @_ZNSt8__detail9__variant17_Copy_assign_baseILb0EJSt3mapINSt7__cxx1112basic_stringIcSt11char_traitsIcESaIcEEEN9grpc_core12experimental4JsonESt4lessIS8_ESaISt4pairIKS8_SB_EEESt6vectorISB_SaISB_EEEED2Ev(ptr noundef nonnull align 8 dereferenceable(49) %this1) #3
  ret void
}

; Function Attrs: mustprogress nounwind uwtable
define linkonce_odr void @_ZNSt8__detail9__variant13_Variant_baseIJSt3mapINSt7__cxx1112basic_stringIcSt11char_traitsIcESaIcEEEN9grpc_core12experimental4JsonESt4lessIS8_ESaISt4pairIKS8_SB_EEESt6vectorISB_SaISB_EEEED2Ev(ptr noundef nonnull align 8 dereferenceable(49) %this) unnamed_addr #6 comdat align 2 {
entry:
  %this.addr = alloca ptr, align 8
  store ptr %this, ptr %this.addr, align 8
  %this1 = load ptr, ptr %this.addr, align 8
  call void @_ZNSt8__detail9__variant17_Move_assign_baseILb0EJSt3mapINSt7__cxx1112basic_stringIcSt11char_traitsIcESaIcEEEN9grpc_core12experimental4JsonESt4lessIS8_ESaISt4pairIKS8_SB_EEESt6vectorISB_SaISB_EEEED2Ev(ptr noundef nonnull align 8 dereferenceable(49) %this1) #3
  ret void
}

; Function Attrs: mustprogress nounwind uwtable
define linkonce_odr void @_ZNSt7variantIJSt3mapINSt7__cxx1112basic_stringIcSt11char_traitsIcESaIcEEEN9grpc_core12experimental4JsonESt4lessIS6_ESaISt4pairIKS6_S9_EEESt6vectorIS9_SaIS9_EEEED2Ev(ptr noundef nonnull align 8 dereferenceable(49) %this) unnamed_addr #6 comdat align 2 {
entry:
  %this.addr = alloca ptr, align 8
  store ptr %this, ptr %this.addr, align 8
  %this1 = load ptr, ptr %this.addr, align 8
  call void @_ZNSt8__detail9__variant13_Variant_baseIJSt3mapINSt7__cxx1112basic_stringIcSt11char_traitsIcESaIcEEEN9grpc_core12experimental4JsonESt4lessIS8_ESaISt4pairIKS8_SB_EEESt6vectorISB_SaISB_EEEED2Ev(ptr noundef nonnull align 8 dereferenceable(49) %this1) #3
  ret void
}

; Function Attrs: mustprogress nounwind uwtable
define internal void @_ZN9grpc_core12_GLOBAL__N_110JsonReader5ScopeD2Ev(ptr noundef nonnull align 8 dereferenceable(88) %this) unnamed_addr #6 align 2 {
entry:
  %this.addr = alloca ptr, align 8
  store ptr %this, ptr %this.addr, align 8
  %this1 = load ptr, ptr %this.addr, align 8
  %data = getelementptr inbounds %"struct.grpc_core::(anonymous namespace)::JsonReader::Scope", ptr %this1, i32 0, i32 1
  call void @_ZNSt7variantIJSt3mapINSt7__cxx1112basic_stringIcSt11char_traitsIcESaIcEEEN9grpc_core12experimental4JsonESt4lessIS6_ESaISt4pairIKS6_S9_EEESt6vectorIS9_SaIS9_EEEED2Ev(ptr noundef nonnull align 8 dereferenceable(49) %data) #3
  %parent_object_key = getelementptr inbounds %"struct.grpc_core::(anonymous namespace)::JsonReader::Scope", ptr %this1, i32 0, i32 0
  call void @_ZNSt7__cxx1112basic_stringIcSt11char_traitsIcESaIcEED1Ev(ptr noundef nonnull align 8 dereferenceable(32) %parent_object_key) #3
  ret void
}